target datalayout = "e-m:e-p270:32:32-p271:32:32-p272:64:64-i64:64-i128:128-f80:128-n8:16:32:64-S128"
target triple = "x86_64-pc-linux-gnu"

%"class.google::protobuf::internal::MapFieldBase" = type <{ ptr, ptr, ptr, %"class.google::protobuf::internal::WrappedMutex", %"struct.std::atomic", [4 x i8] }>
%"class.google::protobuf::internal::WrappedMutex" = type { %"class.std::mutex" }
%"class.std::mutex" = type { %"class.std::__mutex_base" }
%"class.std::__mutex_base" = type { %union.pthread_mutex_t }
%union.pthread_mutex_t = type { %struct.__pthread_mutex_s }
%struct.__pthread_mutex_s = type { i32, i32, i32, i32, i32, i16, i16, %struct.__pthread_internal_list }
%struct.__pthread_internal_list = type { ptr, ptr }
%"struct.std::atomic" = type { i32 }
%"class.google::protobuf::internal::DynamicMapField" = type { %"class.google::protobuf::internal::TypeDefinedMapFieldBase.base", %"class.google::protobuf::Map", ptr }
%"class.google::protobuf::internal::TypeDefinedMapFieldBase.base" = type { %"class.google::protobuf::internal::MapFieldBase.base" }
%"class.google::protobuf::internal::MapFieldBase.base" = type <{ ptr, ptr, ptr, %"class.google::protobuf::internal::WrappedMutex", %"struct.std::atomic" }>
%"class.google::protobuf::Map" = type { %"class.google::protobuf::Map<google::protobuf::MapKey, google::protobuf::MapValueRef>::InnerMap" }
%"class.google::protobuf::Map<google::protobuf::MapKey, google::protobuf::MapValueRef>::InnerMap" = type { i64, i64, i64, i64, ptr, %"class.google::protobuf::internal::MapAllocator" }
%"class.google::protobuf::internal::MapAllocator" = type { ptr }

; Function Attrs: inlinehint mustprogress nounwind uwtable
define internal noundef i32 @_ZL18__gthread_active_pv() #10 {
  ret i32 1
}

; Function Attrs: inlinehint mustprogress nounwind uwtable
define internal noundef i32 @_ZL22__gthread_mutex_unlockP15pthread_mutex_t(ptr noundef %0) #10 {
  %2 = alloca i32, align 4
  %3 = alloca ptr, align 8
  store ptr %0, ptr %3, align 8, !tbaa !26
  %4 = call noundef i32 @_ZL18__gthread_active_pv()
  %5 = icmp ne i32 %4, 0
  br i1 %5, label %6, label %9

6:                                                ; preds = %1
  %7 = load ptr, ptr %3, align 8, !tbaa !26
  %8 = call i32 @pthread_mutex_unlock(ptr noundef %7) #3
  store i32 %8, ptr %2, align 4
  br label %10

9:                                                ; preds = %1
  store i32 0, ptr %2, align 4
  br label %10

10:                                               ; preds = %9, %6
  %11 = load i32, ptr %2, align 4
  ret i32 %11
}

; Function Attrs: inlinehint mustprogress uwtable
define internal noundef i32 @_ZL20__gthread_mutex_lockP15pthread_mutex_t(ptr noundef %0) #11 {
  %2 = alloca i32, align 4
  %3 = alloca ptr, align 8
  store ptr %0, ptr %3, align 8, !tbaa !26
  %4 = call noundef i32 @_ZL18__gthread_active_pv()
  %5 = icmp ne i32 %4, 0
  br i1 %5, label %6, label %9

6:                                                ; preds = %1
  %7 = load ptr, ptr %3, align 8, !tbaa !26
  %8 = call i32 @pthread_mutex_lock(ptr noundef %7) #3
  store i32 %8, ptr %2, align 4
  br label %10

9:                                                ; preds = %1
  store i32 0, ptr %2, align 4
  br label %10

10:                                               ; preds = %9, %6
  %11 = load i32, ptr %2, align 4
  ret i32 %11
}

; Function Attrs: mustprogress uwtable
define linkonce_odr hidden void @_ZNSt5mutex6unlockEv(ptr noundef nonnull align 8 dereferenceable(40) %0) #7 comdat align 2 {
  %2 = alloca ptr, align 8
  store ptr %0, ptr %2, align 8, !tbaa !128
  %3 = load ptr, ptr %2, align 8
  %4 = getelementptr inbounds nuw %"class.std::__mutex_base", ptr %3, i32 0, i32 0
  %5 = call noundef i32 @_ZL22__gthread_mutex_unlockP15pthread_mutex_t(ptr noundef %4)
  ret void
}

; Function Attrs: mustprogress uwtable
define linkonce_odr hidden void @_ZNSt5mutex4lockEv(ptr noundef nonnull align 8 dereferenceable(40) %0) #7 comdat align 2 {
  %2 = alloca ptr, align 8
  %3 = alloca i32, align 4
  store ptr %0, ptr %2, align 8, !tbaa !128
  %4 = load ptr, ptr %2, align 8
  call void @llvm.lifetime.start.p0(i64 4, ptr %3) #3
  %5 = getelementptr inbounds nuw %"class.std::__mutex_base", ptr %4, i32 0, i32 0
  %6 = call noundef i32 @_ZL20__gthread_mutex_lockP15pthread_mutex_t(ptr noundef %5)
  store i32 %6, ptr %3, align 4, !tbaa !41
  %7 = load i32, ptr %3, align 4, !tbaa !41
  %8 = icmp ne i32 %7, 0
  br i1 %8, label %9, label %11

9:                                                ; preds = %1
  %10 = load i32, ptr %3, align 4, !tbaa !41
  call void @_ZSt20__throw_system_errori(i32 noundef %10) #25
  unreachable

11:                                               ; preds = %1
  call void @llvm.lifetime.end.p0(i64 4, ptr %3) #3
  ret void
}

; Function Attrs: mustprogress uwtable
define linkonce_odr hidden void @_ZN6google8protobuf8internal12WrappedMutex6UnlockEv(ptr noundef nonnull align 8 dereferenceable(40) %0) #7 comdat align 2 {
  %2 = alloca ptr, align 8
  store ptr %0, ptr %2, align 8, !tbaa !39
  %3 = load ptr, ptr %2, align 8
  %4 = getelementptr inbounds nuw %"class.google::protobuf::internal::WrappedMutex", ptr %3, i32 0, i32 0
  call void @_ZNSt5mutex6unlockEv(ptr noundef nonnull align 8 dereferenceable(40) %4)
  ret void
}

; Function Attrs: mustprogress nounwind uwtable
define linkonce_odr hidden void @_ZNSt6atomicIN6google8protobuf8internal12MapFieldBase5StateEE5storeES4_St12memory_order(ptr noundef nonnull align 4 dereferenceable(4) %0, i32 noundef %1, i32 noundef %2) #4 comdat align 2 {
  %4 = alloca ptr, align 8
  %5 = alloca i32, align 4
  %6 = alloca i32, align 4
  store ptr %0, ptr %4, align 8, !tbaa !22
  store i32 %1, ptr %5, align 4, !tbaa !21
  store i32 %2, ptr %6, align 4, !tbaa !24
  %7 = load ptr, ptr %4, align 8
  %8 = getelementptr inbounds nuw %"struct.std::atomic", ptr %7, i32 0, i32 0
  %9 = load i32, ptr %6, align 4, !tbaa !24
  switch i32 %9, label %10 [
    i32 3, label %12
    i32 5, label %14
  ]

10:                                               ; preds = %3
  %11 = load i32, ptr %5, align 4
  store atomic i32 %11, ptr %8 monotonic, align 4
  br label %16

12:                                               ; preds = %3
  %13 = load i32, ptr %5, align 4
  store atomic i32 %13, ptr %8 release, align 4
  br label %16

14:                                               ; preds = %3
  %15 = load i32, ptr %5, align 4
  store atomic i32 %15, ptr %8 seq_cst, align 4
  br label %16

16:                                               ; preds = %14, %12, %10
  ret void
}

; Function Attrs: mustprogress uwtable
define linkonce_odr hidden void @_ZN6google8protobuf8internal12WrappedMutex4LockEv(ptr noundef nonnull align 8 dereferenceable(40) %0) #7 comdat align 2 {
  %2 = alloca ptr, align 8
  store ptr %0, ptr %2, align 8, !tbaa !39
  %3 = load ptr, ptr %2, align 8
  %4 = getelementptr inbounds nuw %"class.google::protobuf::internal::WrappedMutex", ptr %3, i32 0, i32 0
  call void @_ZNSt5mutex4lockEv(ptr noundef nonnull align 8 dereferenceable(40) %4)
  ret void
}

; Function Attrs: mustprogress nounwind uwtable
define linkonce_odr hidden noundef i32 @_ZNKSt6atomicIN6google8protobuf8internal12MapFieldBase5StateEE4loadESt12memory_order(ptr noundef nonnull align 4 dereferenceable(4) %0, i32 noundef %1) #4 comdat align 2 {
  %3 = alloca ptr, align 8
  %4 = alloca i32, align 4
  %5 = alloca [4 x i8], align 4
  %6 = alloca ptr, align 8
  store ptr %0, ptr %3, align 8, !tbaa !22
  store i32 %1, ptr %4, align 4, !tbaa !24
  %7 = load ptr, ptr %3, align 8
  call void @llvm.lifetime.start.p0(i64 4, ptr %5) #3
  call void @llvm.lifetime.start.p0(i64 8, ptr %6) #3
  %8 = getelementptr inbounds [4 x i8], ptr %5, i64 0, i64 0
  store ptr %8, ptr %6, align 8, !tbaa !26
  %9 = getelementptr inbounds nuw %"struct.std::atomic", ptr %7, i32 0, i32 0
  %10 = load i32, ptr %4, align 4, !tbaa !24
  %11 = load ptr, ptr %6, align 8, !tbaa !26
  switch i32 %10, label %12 [
    i32 1, label %14
    i32 2, label %14
    i32 5, label %16
  ]

12:                                               ; preds = %2
  %13 = load atomic i32, ptr %9 monotonic, align 4
  store i32 %13, ptr %11, align 4
  br label %18

14:                                               ; preds = %2, %2
  %15 = load atomic i32, ptr %9 acquire, align 4
  store i32 %15, ptr %11, align 4
  br label %18

16:                                               ; preds = %2
  %17 = load atomic i32, ptr %9 seq_cst, align 4
  store i32 %17, ptr %11, align 4
  br label %18

18:                                               ; preds = %16, %14, %12
  %19 = load ptr, ptr %6, align 8, !tbaa !26
  %20 = load i32, ptr %19, align 4, !tbaa !21
  call void @llvm.lifetime.end.p0(i64 8, ptr %6) #3
  call void @llvm.lifetime.end.p0(i64 4, ptr %5) #3
  ret i32 %20
}

; Function Attrs: mustprogress nounwind uwtable
define linkonce_odr hidden void @_ZNK6google8protobuf8internal12MapFieldBase11ConstAccessEv(ptr noundef nonnull align 8 dereferenceable(68) %0) #4 comdat align 2 {
  %2 = alloca ptr, align 8
  store ptr %0, ptr %2, align 8, !tbaa !8
  ret void
}

; Function Attrs: mustprogress uwtable
define hidden void @_ZNK6google8protobuf8internal12MapFieldBase24SyncMapWithRepeatedFieldEv(ptr noundef nonnull align 8 dereferenceable(68) %0) #7 align 2 {
  %2 = alloca ptr, align 8
  store ptr %0, ptr %2, align 8, !tbaa !8
  %3 = load ptr, ptr %2, align 8
  call void @_ZNK6google8protobuf8internal12MapFieldBase11ConstAccessEv(ptr noundef nonnull align 8 dereferenceable(68) %3)
  %4 = getelementptr inbounds nuw %"class.google::protobuf::internal::MapFieldBase", ptr %3, i32 0, i32 4
  %5 = call noundef i32 @_ZNKSt6atomicIN6google8protobuf8internal12MapFieldBase5StateEE4loadESt12memory_order(ptr noundef nonnull align 4 dereferenceable(4) %4, i32 noundef 2) #3
  %6 = icmp eq i32 %5, 1
  br i1 %6, label %7, label %19

7:                                                ; preds = %1
  %8 = getelementptr inbounds nuw %"class.google::protobuf::internal::MapFieldBase", ptr %3, i32 0, i32 3
  call void @_ZN6google8protobuf8internal12WrappedMutex4LockEv(ptr noundef nonnull align 8 dereferenceable(40) %8)
  %9 = getelementptr inbounds nuw %"class.google::protobuf::internal::MapFieldBase", ptr %3, i32 0, i32 4
  %10 = call noundef i32 @_ZNKSt6atomicIN6google8protobuf8internal12MapFieldBase5StateEE4loadESt12memory_order(ptr noundef nonnull align 4 dereferenceable(4) %9, i32 noundef 0) #3
  %11 = icmp eq i32 %10, 1
  br i1 %11, label %12, label %17

12:                                               ; preds = %7
  %13 = load ptr, ptr %3, align 8, !tbaa !18
  %14 = getelementptr inbounds ptr, ptr %13, i64 16
  %15 = load ptr, ptr %14, align 8
  call void %15(ptr noundef nonnull align 8 dereferenceable(68) %3)
  %16 = getelementptr inbounds nuw %"class.google::protobuf::internal::MapFieldBase", ptr %3, i32 0, i32 4
  call void @_ZNSt6atomicIN6google8protobuf8internal12MapFieldBase5StateEE5storeES4_St12memory_order(ptr noundef nonnull align 4 dereferenceable(4) %16, i32 noundef 2, i32 noundef 3) #3
  br label %17

17:                                               ; preds = %12, %7
  %18 = getelementptr inbounds nuw %"class.google::protobuf::internal::MapFieldBase", ptr %3, i32 0, i32 3
  call void @_ZN6google8protobuf8internal12WrappedMutex6UnlockEv(ptr noundef nonnull align 8 dereferenceable(40) %18)
  call void @_ZNK6google8protobuf8internal12MapFieldBase11ConstAccessEv(ptr noundef nonnull align 8 dereferenceable(68) %3)
  br label %19

19:                                               ; preds = %17, %1
  ret void
}

; Function Attrs: mustprogress uwtable
define hidden noundef nonnull align 8 dereferenceable(48) ptr @_ZNK6google8protobuf8internal15DynamicMapField6GetMapEv(ptr noundef nonnull align 8 dereferenceable(128) %0) unnamed_addr #7 align 2 {
  %2 = alloca ptr, align 8
  store ptr %0, ptr %2, align 8, !tbaa !43
  %3 = load ptr, ptr %2, align 8
  call void @_ZNK6google8protobuf8internal12MapFieldBase24SyncMapWithRepeatedFieldEv(ptr noundef nonnull align 8 dereferenceable(68) %3)
  %4 = getelementptr inbounds nuw %"class.google::protobuf::internal::DynamicMapField", ptr %3, i32 0, i32 1
  ret ptr %4
}