; Function Attrs: mustprogress uwtable
define hidden noundef nonnull align 8 dereferenceable(48) ptr @_ZNK6google8protobuf8internal15DynamicMapField6GetMapEv(ptr noundef nonnull align 8 dereferenceable(128) %0) unnamed_addr #6 align 2 {
  %2 = getelementptr inbounds nuw i8, ptr %0, i64 64
  %3 = load atomic i32, ptr %2 acquire, align 8
  %4 = icmp eq i32 %3, 1
  br i1 %4, label %5, label %_ZNK6google8protobuf8internal12MapFieldBase24SyncMapWithRepeatedFieldEv.exit

5:                                                ; preds = %1
  %6 = getelementptr inbounds nuw i8, ptr %0, i64 24
  %7 = tail call noundef i32 @pthread_mutex_lock(ptr noundef nonnull align 8 dereferenceable(40) %6) #29
  %.not.i.i.i = icmp eq i32 %7, 0
  br i1 %.not.i.i.i, label %_ZN6google8protobuf8internal12WrappedMutex4LockEv.exit.i, label %8

8:                                                ; preds = %5
  tail call void @_ZSt20__throw_system_errori(i32 noundef %7) #30
  unreachable

_ZN6google8protobuf8internal12WrappedMutex4LockEv.exit.i: ; preds = %5
  %9 = load atomic i32, ptr %2 monotonic, align 8
  %10 = icmp eq i32 %9, 1
  br i1 %10, label %11, label %15

11:                                               ; preds = %_ZN6google8protobuf8internal12WrappedMutex4LockEv.exit.i
  %12 = load ptr, ptr %0, align 8, !tbaa !15
  %13 = getelementptr inbounds nuw i8, ptr %12, i64 128
  %14 = load ptr, ptr %13, align 8
  tail call void %14(ptr noundef nonnull align 8 dereferenceable(68) %0)
  store atomic i32 2, ptr %2 release, align 8
  br label %15

15:                                               ; preds = %11, %_ZN6google8protobuf8internal12WrappedMutex4LockEv.exit.i
  %16 = tail call noundef i32 @pthread_mutex_unlock(ptr noundef nonnull align 8 dereferenceable(40) %6) #29
  br label %_ZNK6google8protobuf8internal12MapFieldBase24SyncMapWithRepeatedFieldEv.exit

_ZNK6google8protobuf8internal12MapFieldBase24SyncMapWithRepeatedFieldEv.exit: ; preds = %1, %15
  %17 = getelementptr inbounds nuw i8, ptr %0, i64 72
  ret ptr %17
}